; Function Attrs: nounwind uwtable
define void @Aig_ManSupportNodes_rec(ptr noundef readonly captures(none) %0, ptr noundef captures(none) %1, ptr noundef captures(none) %2) local_unnamed_addr #4 {
  %4 = getelementptr i8, ptr %0, i64 312
  %.val1624 = load i32, ptr %4, align 8, !tbaa !100
  %5 = getelementptr i8, ptr %1, i64 32
  %.val1725 = load i32, ptr %5, align 8, !tbaa !101
  %.not26 = icmp eq i32 %.val1725, %.val1624
  br i1 %.not26, label %.loopexit, label %.lr.ph

.lr.ph:                                           ; preds = %3, %tailrecurse
  %6 = phi ptr [ %49, %tailrecurse ], [ %5, %3 ]
  %.val1628 = phi i32 [ %.val16, %tailrecurse ], [ %.val1624, %3 ]
  %.tr2127 = phi ptr [ %48, %tailrecurse ], [ %1, %3 ]
  store i32 %.val1628, ptr %6, align 8, !tbaa !101
  %7 = getelementptr i8, ptr %.tr2127, i64 24
  %.val15 = load i64, ptr %7, align 8
  %8 = and i64 %.val15, 7
  %.not20 = icmp eq i64 %8, 2
  br i1 %.not20, label %9, label %tailrecurse

9:                                                ; preds = %.lr.ph
  %.val19 = load i32, ptr %.tr2127, align 8, !tbaa !51
  %10 = getelementptr inbounds nuw i8, ptr %2, i64 4
  %11 = load i32, ptr %10, align 4, !tbaa !33
  %12 = load i32, ptr %2, align 8, !tbaa !36
  %13 = icmp eq i32 %11, %12
  br i1 %13, label %14, label %.Vec_IntGrow.exit10_crit_edge.i

.Vec_IntGrow.exit10_crit_edge.i:                  ; preds = %9
  %.phi.trans.insert.i = getelementptr inbounds nuw i8, ptr %2, i64 8
  %.pre.i = load ptr, ptr %.phi.trans.insert.i, align 8, !tbaa !37
  br label %Vec_IntPush.exit

14:                                               ; preds = %9
  %15 = icmp slt i32 %11, 16
  br i1 %15, label %16, label %24

16:                                               ; preds = %14
  %17 = getelementptr inbounds nuw i8, ptr %2, i64 8
  %18 = load ptr, ptr %17, align 8, !tbaa !37
  %.not9.i.i = icmp eq ptr %18, null
  br i1 %.not9.i.i, label %21, label %19

19:                                               ; preds = %16
  %20 = tail call dereferenceable_or_null(64) ptr @realloc(ptr noundef nonnull %18, i64 noundef 64) #25
  br label %Vec_IntGrow.exit.i

21:                                               ; preds = %16
  %22 = tail call noalias dereferenceable_or_null(64) ptr @malloc(i64 noundef 64) #23
  br label %Vec_IntGrow.exit.i

Vec_IntGrow.exit.i:                               ; preds = %21, %19
  %23 = phi ptr [ %20, %19 ], [ %22, %21 ]
  store ptr %23, ptr %17, align 8, !tbaa !37
  store i32 16, ptr %2, align 8, !tbaa !36
  br label %Vec_IntPush.exit

24:                                               ; preds = %14
  %25 = shl nuw nsw i32 %11, 1
  %26 = getelementptr inbounds nuw i8, ptr %2, i64 8
  %27 = load ptr, ptr %26, align 8, !tbaa !37
  %.not9.i9.i = icmp eq ptr %27, null
  %28 = zext nneg i32 %25 to i64
  %29 = shl nuw nsw i64 %28, 2
  br i1 %.not9.i9.i, label %32, label %30

30:                                               ; preds = %24
  %31 = tail call ptr @realloc(ptr noundef nonnull %27, i64 noundef %29) #25
  br label %34

32:                                               ; preds = %24
  %33 = tail call noalias ptr @malloc(i64 noundef %29) #23
  br label %34

34:                                               ; preds = %32, %30
  %35 = phi ptr [ %31, %30 ], [ %33, %32 ]
  store ptr %35, ptr %26, align 8, !tbaa !37
  store i32 %25, ptr %2, align 8, !tbaa !36
  br label %Vec_IntPush.exit

Vec_IntPush.exit:                                 ; preds = %.Vec_IntGrow.exit10_crit_edge.i, %Vec_IntGrow.exit.i, %34
  %36 = phi ptr [ %.pre.i, %.Vec_IntGrow.exit10_crit_edge.i ], [ %35, %34 ], [ %23, %Vec_IntGrow.exit.i ]
  %37 = load i32, ptr %10, align 4, !tbaa !33
  %38 = add nsw i32 %37, 1
  store i32 %38, ptr %10, align 4, !tbaa !33
  %39 = sext i32 %37 to i64
  %40 = getelementptr inbounds i32, ptr %36, i64 %39
  store i32 %.val19, ptr %40, align 4, !tbaa !29
  br label %.loopexit

tailrecurse:                                      ; preds = %.lr.ph
  %41 = getelementptr i8, ptr %.tr2127, i64 8
  %.val = load ptr, ptr %41, align 8, !tbaa !55
  %42 = ptrtoint ptr %.val to i64
  %43 = and i64 %42, -2
  %44 = inttoptr i64 %43 to ptr
  tail call void @Aig_ManSupportNodes_rec(ptr noundef nonnull %0, ptr noundef %44, ptr noundef %2)
  %45 = getelementptr i8, ptr %.tr2127, i64 16
  %.val14 = load ptr, ptr %45, align 8, !tbaa !56
  %46 = ptrtoint ptr %.val14 to i64
  %47 = and i64 %46, -2
  %48 = inttoptr i64 %47 to ptr
  %.val16 = load i32, ptr %4, align 8, !tbaa !100
  %49 = getelementptr i8, ptr %48, i64 32
  %.val17 = load i32, ptr %49, align 8, !tbaa !101
  %.not = icmp eq i32 %.val17, %.val16
  br i1 %.not, label %.loopexit, label %.lr.ph

.loopexit:                                        ; preds = %tailrecurse, %3, %Vec_IntPush.exit
  ret void
}